; Function Attrs: nofree norecurse nosync nounwind memory(argmem: readwrite) uwtable
define void @ff_put_pixels_clamped_c(ptr noundef readonly captures(none) %0, ptr noalias noundef writeonly captures(none) %1, i64 noundef %2) #3 {
  br label %4

4:                                                ; preds = %3, %4
  %.045 = phi i32 [ 0, %3 ], [ %45, %4 ]
  %.02044 = phi ptr [ %0, %3 ], [ %44, %4 ]
  %.02143 = phi ptr [ %1, %3 ], [ %43, %4 ]
  %5 = load i16, ptr %.02044, align 2, !tbaa !13
  %.not.i = icmp ult i16 %5, 256
  %isnotneg.i = icmp sgt i16 %5, -1
  %6 = sext i1 %isnotneg.i to i8
  %7 = trunc i16 %5 to i8
  %.0.i = select i1 %.not.i, i8 %7, i8 %6
  store i8 %.0.i, ptr %.02143, align 1, !tbaa !4
  %8 = getelementptr inbounds nuw i8, ptr %.02044, i64 2
  %9 = load i16, ptr %8, align 2, !tbaa !13
  %.not.i22 = icmp ult i16 %9, 256
  %isnotneg.i23 = icmp sgt i16 %9, -1
  %10 = sext i1 %isnotneg.i23 to i8
  %11 = trunc i16 %9 to i8
  %.0.i24 = select i1 %.not.i22, i8 %11, i8 %10
  %12 = getelementptr inbounds nuw i8, ptr %.02143, i64 1
  store i8 %.0.i24, ptr %12, align 1, !tbaa !4
  %13 = getelementptr inbounds nuw i8, ptr %.02044, i64 4
  %14 = load i16, ptr %13, align 2, !tbaa !13
  %.not.i25 = icmp ult i16 %14, 256
  %isnotneg.i26 = icmp sgt i16 %14, -1
  %15 = sext i1 %isnotneg.i26 to i8
  %16 = trunc i16 %14 to i8
  %.0.i27 = select i1 %.not.i25, i8 %16, i8 %15
  %17 = getelementptr inbounds nuw i8, ptr %.02143, i64 2
  store i8 %.0.i27, ptr %17, align 1, !tbaa !4
  %18 = getelementptr inbounds nuw i8, ptr %.02044, i64 6
  %19 = load i16, ptr %18, align 2, !tbaa !13
  %.not.i28 = icmp ult i16 %19, 256
  %isnotneg.i29 = icmp sgt i16 %19, -1
  %20 = sext i1 %isnotneg.i29 to i8
  %21 = trunc i16 %19 to i8
  %.0.i30 = select i1 %.not.i28, i8 %21, i8 %20
  %22 = getelementptr inbounds nuw i8, ptr %.02143, i64 3
  store i8 %.0.i30, ptr %22, align 1, !tbaa !4
  %23 = getelementptr inbounds nuw i8, ptr %.02044, i64 8
  %24 = load i16, ptr %23, align 2, !tbaa !13
  %.not.i31 = icmp ult i16 %24, 256
  %isnotneg.i32 = icmp sgt i16 %24, -1
  %25 = sext i1 %isnotneg.i32 to i8
  %26 = trunc i16 %24 to i8
  %.0.i33 = select i1 %.not.i31, i8 %26, i8 %25
  %27 = getelementptr inbounds nuw i8, ptr %.02143, i64 4
  store i8 %.0.i33, ptr %27, align 1, !tbaa !4
  %28 = getelementptr inbounds nuw i8, ptr %.02044, i64 10
  %29 = load i16, ptr %28, align 2, !tbaa !13
  %.not.i34 = icmp ult i16 %29, 256
  %isnotneg.i35 = icmp sgt i16 %29, -1
  %30 = sext i1 %isnotneg.i35 to i8
  %31 = trunc i16 %29 to i8
  %.0.i36 = select i1 %.not.i34, i8 %31, i8 %30
  %32 = getelementptr inbounds nuw i8, ptr %.02143, i64 5
  store i8 %.0.i36, ptr %32, align 1, !tbaa !4
  %33 = getelementptr inbounds nuw i8, ptr %.02044, i64 12
  %34 = load i16, ptr %33, align 2, !tbaa !13
  %.not.i37 = icmp ult i16 %34, 256
  %isnotneg.i38 = icmp sgt i16 %34, -1
  %35 = sext i1 %isnotneg.i38 to i8
  %36 = trunc i16 %34 to i8
  %.0.i39 = select i1 %.not.i37, i8 %36, i8 %35
  %37 = getelementptr inbounds nuw i8, ptr %.02143, i64 6
  store i8 %.0.i39, ptr %37, align 1, !tbaa !4
  %38 = getelementptr inbounds nuw i8, ptr %.02044, i64 14
  %39 = load i16, ptr %38, align 2, !tbaa !13
  %.not.i40 = icmp ult i16 %39, 256
  %isnotneg.i41 = icmp sgt i16 %39, -1
  %40 = sext i1 %isnotneg.i41 to i8
  %41 = trunc i16 %39 to i8
  %.0.i42 = select i1 %.not.i40, i8 %41, i8 %40
  %42 = getelementptr inbounds nuw i8, ptr %.02143, i64 7
  store i8 %.0.i42, ptr %42, align 1, !tbaa !4
  %43 = getelementptr inbounds i8, ptr %.02143, i64 %2
  %44 = getelementptr inbounds nuw i8, ptr %.02044, i64 16
  %45 = add nuw nsw i32 %.045, 1
  %exitcond.not = icmp eq i32 %45, 8
  br i1 %exitcond.not, label %46, label %4, !llvm.loop !15

46:                                               ; preds = %4
  ret void
}